; Function Attrs: mustprogress nounwind uwtable
define internal noundef i32 @_ZN4node12_GLOBAL__N_16Parser5ProxyIMS1_FivEXadL_ZNS1_16on_message_beginEvEEE3RawEP18llhttp__internal_s(ptr noundef %p) #3 align 2 {
entry:
  %callback_scope.i = alloca %"class.node::InternalCallbackScope", align 8
  %0 = ptrtoint ptr %p to i64
  %sub.i.i = add i64 %0, -80
  %1 = inttoptr i64 %sub.i.i to ptr
  call void @llvm.lifetime.start.p0(i64 40, ptr nonnull %callback_scope.i)
  %connectionsList_.i = getelementptr inbounds i8, ptr %1, i64 1832
  %2 = load ptr, ptr %connectionsList_.i, align 8
  %cmp.not.i = icmp eq ptr %2, null
  br i1 %cmp.not.i, label %if.end.i, label %if.then.i

if.then.i:                                        ; preds = %entry
  %all_connections_.i.i = getelementptr inbounds i8, ptr %2, i64 32
  tail call fastcc void @_ZNSt3setIPN4node12_GLOBAL__N_16ParserENS1_16ParserComparatorESaIS3_EE5eraseERKS3_(ptr noundef nonnull align 8 dereferenceable(48) %all_connections_.i.i, ptr nonnull %1)
  %3 = load ptr, ptr %connectionsList_.i, align 8
  %active_connections_.i.i = getelementptr inbounds i8, ptr %3, i64 80
  tail call fastcc void @_ZNSt3setIPN4node12_GLOBAL__N_16ParserENS1_16ParserComparatorESaIS3_EE5eraseERKS3_(ptr noundef nonnull align 8 dereferenceable(48) %active_connections_.i.i, ptr nonnull %1)
  br label %if.end.i

if.end.i:                                         ; preds = %if.then.i, %entry
  %num_fields_.i = getelementptr inbounds i8, ptr %1, i64 1760
  %headers_completed_.i = getelementptr inbounds i8, ptr %1, i64 1800
  store i8 0, ptr %headers_completed_.i, align 8
  tail call void @llvm.memset.p0.i64(ptr noundef nonnull align 8 dereferenceable(16) %num_fields_.i, i8 0, i64 16, i1 false)
  %call.i = tail call i64 @uv_hrtime() #20
  %last_message_start_.i = getelementptr inbounds i8, ptr %1, i64 1824
  store i64 %call.i, ptr %last_message_start_.i, align 8
  %url_.i = getelementptr inbounds i8, ptr %1, i64 1712
  %on_heap_.i.i = getelementptr inbounds i8, ptr %1, i64 1720
  %4 = load i8, ptr %on_heap_.i.i, align 8
  %5 = and i8 %4, 1
  %tobool.not.i.i = icmp eq i8 %5, 0
  br i1 %tobool.not.i.i, label %_ZN4node12_GLOBAL__N_19StringPtr5ResetEv.exit.i, label %if.then.i2.i

if.then.i2.i:                                     ; preds = %if.end.i
  %6 = load ptr, ptr %url_.i, align 8
  %isnull.i.i = icmp eq ptr %6, null
  br i1 %isnull.i.i, label %delete.end.i.i, label %delete.notnull.i.i

delete.notnull.i.i:                               ; preds = %if.then.i2.i
  tail call void @_ZdaPv(ptr noundef nonnull %6) #23
  br label %delete.end.i.i

delete.end.i.i:                                   ; preds = %delete.notnull.i.i, %if.then.i2.i
  store i8 0, ptr %on_heap_.i.i, align 8
  br label %_ZN4node12_GLOBAL__N_19StringPtr5ResetEv.exit.i

_ZN4node12_GLOBAL__N_19StringPtr5ResetEv.exit.i:  ; preds = %delete.end.i.i, %if.end.i
  store ptr null, ptr %url_.i, align 8
  %size_.i.i = getelementptr inbounds i8, ptr %1, i64 1728
  store i64 0, ptr %size_.i.i, align 8
  %status_message_.i = getelementptr inbounds i8, ptr %1, i64 1736
  %on_heap_.i3.i = getelementptr inbounds i8, ptr %1, i64 1744
  %7 = load i8, ptr %on_heap_.i3.i, align 8
  %8 = and i8 %7, 1
  %tobool.not.i4.i = icmp eq i8 %8, 0
  br i1 %tobool.not.i4.i, label %_ZN4node12_GLOBAL__N_19StringPtr5ResetEv.exit10.i, label %if.then.i5.i

if.then.i5.i:                                     ; preds = %_ZN4node12_GLOBAL__N_19StringPtr5ResetEv.exit.i
  %9 = load ptr, ptr %status_message_.i, align 8
  %isnull.i6.i = icmp eq ptr %9, null
  br i1 %isnull.i6.i, label %delete.end.i8.i, label %delete.notnull.i7.i

delete.notnull.i7.i:                              ; preds = %if.then.i5.i
  tail call void @_ZdaPv(ptr noundef nonnull %9) #23
  br label %delete.end.i8.i

delete.end.i8.i:                                  ; preds = %delete.notnull.i7.i, %if.then.i5.i
  store i8 0, ptr %on_heap_.i3.i, align 8
  br label %_ZN4node12_GLOBAL__N_19StringPtr5ResetEv.exit10.i

_ZN4node12_GLOBAL__N_19StringPtr5ResetEv.exit10.i: ; preds = %delete.end.i8.i, %_ZN4node12_GLOBAL__N_19StringPtr5ResetEv.exit.i
  store ptr null, ptr %status_message_.i, align 8
  %size_.i9.i = getelementptr inbounds i8, ptr %1, i64 1752
  store i64 0, ptr %size_.i9.i, align 8
  %10 = load ptr, ptr %connectionsList_.i, align 8
  %cmp5.not.i = icmp eq ptr %10, null
  br i1 %cmp5.not.i, label %if.end9.i, label %if.then6.i

if.then6.i:                                       ; preds = %_ZN4node12_GLOBAL__N_19StringPtr5ResetEv.exit10.i
  %all_connections_.i11.i = getelementptr inbounds i8, ptr %10, i64 32
  tail call fastcc void @_ZNSt3setIPN4node12_GLOBAL__N_16ParserENS1_16ParserComparatorESaIS3_EE6insertERKS3_(ptr noundef nonnull align 8 dereferenceable(48) %all_connections_.i11.i, ptr nonnull %1)
  %11 = load ptr, ptr %connectionsList_.i, align 8
  %active_connections_.i12.i = getelementptr inbounds i8, ptr %11, i64 80
  tail call fastcc void @_ZNSt3setIPN4node12_GLOBAL__N_16ParserENS1_16ParserComparatorESaIS3_EE6insertERKS3_(ptr noundef nonnull align 8 dereferenceable(48) %active_connections_.i12.i, ptr nonnull %1)
  br label %if.end9.i

if.end9.i:                                        ; preds = %if.then6.i, %_ZN4node12_GLOBAL__N_19StringPtr5ResetEv.exit10.i
  %realm_.i.i.i = getelementptr inbounds i8, ptr %1, i64 16
  %12 = load ptr, ptr %realm_.i.i.i, align 8
  %env_.i.i.i.i = getelementptr inbounds i8, ptr %12, i64 176
  %13 = load ptr, ptr %env_.i.i.i.i, align 8
  %isolate_.i.i.i = getelementptr inbounds i8, ptr %13, i64 88
  %14 = load ptr, ptr %isolate_.i.i.i, align 8
  %persistent_handle_.i.i = getelementptr inbounds i8, ptr %1, i64 8
  %15 = load ptr, ptr %persistent_handle_.i.i, align 8
  %cmp.i.i.i.i.i = icmp eq ptr %15, null
  br i1 %cmp.i.i.i.i.i, label %_ZNK4node10BaseObject6objectEv.exit.i, label %if.end.i.i.i.i

if.end.i.i.i.i:                                   ; preds = %if.end9.i
  %add.ptr.i.i.i.i = getelementptr inbounds i8, ptr %15, i64 11
  %16 = load i8, ptr %add.ptr.i.i.i.i, align 1
  %17 = and i8 %16, 3
  %cmp.i.i.i.i = icmp eq i8 %17, 2
  br i1 %cmp.i.i.i.i, label %_ZN4node17PersistentToLocal4WeakIN2v86ObjectEEENS2_5LocalIT_EEPNS2_7IsolateERKNS2_14PersistentBaseIS5_EE.exit.i.i.i, label %_ZNK4node10BaseObject6objectEv.exit.i

_ZN4node17PersistentToLocal4WeakIN2v86ObjectEEENS2_5LocalIT_EEPNS2_7IsolateERKNS2_14PersistentBaseIS5_EE.exit.i.i.i: ; preds = %if.end.i.i.i.i
  %18 = load i64, ptr %15, align 8
  %call.i.i.i.i.i = tail call noundef ptr @_ZN2v811HandleScope12CreateHandleEPNS_8internal7IsolateEm(ptr noundef %14, i64 noundef %18) #20
  %.pre.i = load ptr, ptr %realm_.i.i.i, align 8
  %env_.i.i.phi.trans.insert.i = getelementptr inbounds i8, ptr %.pre.i, i64 176
  %.pre31.i = load ptr, ptr %env_.i.i.phi.trans.insert.i, align 8
  br label %_ZNK4node10BaseObject6objectEv.exit.i

_ZNK4node10BaseObject6objectEv.exit.i:            ; preds = %_ZN4node17PersistentToLocal4WeakIN2v86ObjectEEENS2_5LocalIT_EEPNS2_7IsolateERKNS2_14PersistentBaseIS5_EE.exit.i.i.i, %if.end.i.i.i.i, %if.end9.i
  %19 = phi ptr [ %.pre31.i, %_ZN4node17PersistentToLocal4WeakIN2v86ObjectEEENS2_5LocalIT_EEPNS2_7IsolateERKNS2_14PersistentBaseIS5_EE.exit.i.i.i ], [ %13, %if.end9.i ], [ %13, %if.end.i.i.i.i ]
  %retval.sroa.0.0.i.i.i = phi ptr [ %call.i.i.i.i.i, %_ZN4node17PersistentToLocal4WeakIN2v86ObjectEEENS2_5LocalIT_EEPNS2_7IsolateERKNS2_14PersistentBaseIS5_EE.exit.i.i.i ], [ null, %if.end9.i ], [ %15, %if.end.i.i.i.i ]
  %principal_realm_.i.i.i = getelementptr inbounds i8, ptr %19, i64 2728
  %20 = load ptr, ptr %principal_realm_.i.i.i, align 8
  %vtable.i.i = load ptr, ptr %20, align 8
  %vfn.i.i = getelementptr inbounds i8, ptr %vtable.i.i, i64 64
  %21 = load ptr, ptr %vfn.i.i, align 8
  %call2.i.i = tail call ptr %21(ptr noundef nonnull align 8 dereferenceable(872) %20) #20
  %call23.i = tail call ptr @_ZN2v86Object3GetENS_5LocalINS_7ContextEEEj(ptr noundef nonnull align 1 dereferenceable(1) %retval.sroa.0.0.i.i.i, ptr %call2.i.i, i32 noundef 0) #20
  %cmp.i.i.i = icmp eq ptr %call23.i, null
  br i1 %cmp.i.i.i, label %if.then.i.i, label %_ZN2v810MaybeLocalINS_5ValueEE14ToLocalCheckedEv.exit.i

if.then.i.i:                                      ; preds = %_ZNK4node10BaseObject6objectEv.exit.i
  tail call void @_ZN2v812api_internal12ToLocalEmptyEv() #20
  br label %_ZN2v810MaybeLocalINS_5ValueEE14ToLocalCheckedEv.exit.i

_ZN2v810MaybeLocalINS_5ValueEE14ToLocalCheckedEv.exit.i: ; preds = %if.then.i.i, %_ZNK4node10BaseObject6objectEv.exit.i
  %call33.i = tail call noundef zeroext i1 @_ZNK2v85Value10IsFunctionEv(ptr noundef nonnull align 1 dereferenceable(1) %call23.i) #20
  br i1 %call33.i, label %if.then34.i, label %_ZN4node12_GLOBAL__N_16Parser16on_message_beginEv.exit

if.then34.i:                                      ; preds = %_ZN2v810MaybeLocalINS_5ValueEE14ToLocalCheckedEv.exit.i
  call void @_ZN4node21InternalCallbackScopeC1EPNS_9AsyncWrapEi(ptr noundef nonnull align 8 dereferenceable(37) %callback_scope.i, ptr noundef nonnull %1, i32 noundef 2) #20
  %22 = load ptr, ptr %realm_.i.i.i, align 8
  %env_.i.i14.i = getelementptr inbounds i8, ptr %22, i64 176
  %23 = load ptr, ptr %env_.i.i14.i, align 8
  %principal_realm_.i.i15.i = getelementptr inbounds i8, ptr %23, i64 2728
  %24 = load ptr, ptr %principal_realm_.i.i15.i, align 8
  %vtable.i16.i = load ptr, ptr %24, align 8
  %vfn.i17.i = getelementptr inbounds i8, ptr %vtable.i16.i, i64 64
  %25 = load ptr, ptr %vfn.i17.i, align 8
  %call2.i18.i = call ptr %25(ptr noundef nonnull align 8 dereferenceable(872) %24) #20
  %26 = load ptr, ptr %realm_.i.i.i, align 8
  %env_.i.i.i20.i = getelementptr inbounds i8, ptr %26, i64 176
  %27 = load ptr, ptr %env_.i.i.i20.i, align 8
  %isolate_.i.i21.i = getelementptr inbounds i8, ptr %27, i64 88
  %28 = load ptr, ptr %isolate_.i.i21.i, align 8
  %29 = load ptr, ptr %persistent_handle_.i.i, align 8
  %cmp.i.i.i.i23.i = icmp eq ptr %29, null
  br i1 %cmp.i.i.i.i23.i, label %_ZNK4node10BaseObject6objectEv.exit30.i, label %if.end.i.i.i24.i

if.end.i.i.i24.i:                                 ; preds = %if.then34.i
  %add.ptr.i.i.i25.i = getelementptr inbounds i8, ptr %29, i64 11
  %30 = load i8, ptr %add.ptr.i.i.i25.i, align 1
  %31 = and i8 %30, 3
  %cmp.i.i.i26.i = icmp eq i8 %31, 2
  br i1 %cmp.i.i.i26.i, label %_ZN4node17PersistentToLocal4WeakIN2v86ObjectEEENS2_5LocalIT_EEPNS2_7IsolateERKNS2_14PersistentBaseIS5_EE.exit.i.i28.i, label %_ZNK4node10BaseObject6objectEv.exit30.i

_ZN4node17PersistentToLocal4WeakIN2v86ObjectEEENS2_5LocalIT_EEPNS2_7IsolateERKNS2_14PersistentBaseIS5_EE.exit.i.i28.i: ; preds = %if.end.i.i.i24.i
  %32 = load i64, ptr %29, align 8
  %call.i.i.i.i29.i = call noundef ptr @_ZN2v811HandleScope12CreateHandleEPNS_8internal7IsolateEm(ptr noundef %28, i64 noundef %32) #20
  br label %_ZNK4node10BaseObject6objectEv.exit30.i

_ZNK4node10BaseObject6objectEv.exit30.i:          ; preds = %_ZN4node17PersistentToLocal4WeakIN2v86ObjectEEENS2_5LocalIT_EEPNS2_7IsolateERKNS2_14PersistentBaseIS5_EE.exit.i.i28.i, %if.end.i.i.i24.i, %if.then34.i
  %retval.sroa.0.0.i.i27.i = phi ptr [ %call.i.i.i.i29.i, %_ZN4node17PersistentToLocal4WeakIN2v86ObjectEEENS2_5LocalIT_EEPNS2_7IsolateERKNS2_14PersistentBaseIS5_EE.exit.i.i28.i ], [ null, %if.then34.i ], [ %29, %if.end.i.i.i24.i ]
  %call62.i = call ptr @_ZN2v88Function4CallENS_5LocalINS_7ContextEEENS1_INS_5ValueEEEiPS5_(ptr noundef nonnull align 1 dereferenceable(1) %call23.i, ptr %call2.i18.i, ptr %retval.sroa.0.0.i.i27.i, i32 noundef 0, ptr noundef null) #20
  %cmp.i.i91.i = icmp eq ptr %call62.i, null
  br i1 %cmp.i.i91.i, label %if.then68.i, label %if.end69.i

if.then68.i:                                      ; preds = %_ZNK4node10BaseObject6objectEv.exit30.i
  %failed_.i.i = getelementptr inbounds i8, ptr %callback_scope.i, i64 34
  store i8 1, ptr %failed_.i.i, align 2
  br label %if.end69.i

if.end69.i:                                       ; preds = %if.then68.i, %_ZNK4node10BaseObject6objectEv.exit30.i
  call void @_ZN4node21InternalCallbackScopeD1Ev(ptr noundef nonnull align 8 dereferenceable(37) %callback_scope.i) #20
  br label %_ZN4node12_GLOBAL__N_16Parser16on_message_beginEv.exit

_ZN4node12_GLOBAL__N_16Parser16on_message_beginEv.exit: ; preds = %_ZN2v810MaybeLocalINS_5ValueEE14ToLocalCheckedEv.exit.i, %if.end69.i
  call void @llvm.lifetime.end.p0(i64 40, ptr nonnull %callback_scope.i)
  %pending_pause_.i = getelementptr inbounds i8, ptr %1, i64 1801
  %33 = load i8, ptr %pending_pause_.i, align 1
  %34 = and i8 %33, 1
  %tobool.not.i = icmp eq i8 %34, 0
  br i1 %tobool.not.i, label %_ZN4node12_GLOBAL__N_16Parser10MaybePauseEv.exit, label %if.end.i3

if.end.i3:                                        ; preds = %_ZN4node12_GLOBAL__N_16Parser16on_message_beginEv.exit
  store i8 0, ptr %pending_pause_.i, align 1
  %parser_.i = getelementptr inbounds i8, ptr %1, i64 80
  call void @llhttp_set_error_reason(ptr noundef nonnull %parser_.i, ptr noundef nonnull @.str.123) #20
  br label %_ZN4node12_GLOBAL__N_16Parser10MaybePauseEv.exit

_ZN4node12_GLOBAL__N_16Parser10MaybePauseEv.exit: ; preds = %_ZN4node12_GLOBAL__N_16Parser16on_message_beginEv.exit, %if.end.i3
  %retval.0.i = phi i32 [ 21, %if.end.i3 ], [ 0, %_ZN4node12_GLOBAL__N_16Parser16on_message_beginEv.exit ]
  ret i32 %retval.0.i
}